target datalayout = "e-m:e-p270:32:32-p271:32:32-p272:64:64-i64:64-i128:128-f80:128-n8:16:32:64-S128"
target triple = "x86_64-pc-linux-gnu"

%struct.jit_State = type { %struct.GCtrace, ptr, ptr, ptr, ptr, ptr, ptr, i32, i32, i32, i8, i8, %struct.IRType1, i8, %struct.FoldState, ptr, i32, i32, i32, i32, i32, i32, i32, [1 x i32], [5 x %union.TValue], [3 x %union.TValue], ptr, i32, i32, i32, i32, ptr, ptr, i32, i32, i8, ptr, i32, i32, i16, [101 x i16], [258 x i32], [15 x i32], [16 x ptr], [64 x %struct.HotPenalty], i32, [16 x %struct.BPropEntry], i32, %struct.ScEvEntry, ptr, i32, i32, i32, ptr, i32, i32, ptr, ptr, ptr, i64, i64, %union.TValue, ptr, i32, i32 }
%struct.GCtrace = type { %struct.GCRef, i8, i8, i16, i32, i32, %struct.GCRef, ptr, i32, i32, ptr, ptr, %struct.GCRef, %struct.MRef, i32, i32, ptr, i32, i16, i16, i16, i16, i16, i16, i16, i8, i8, i8, i8 }
%struct.GCRef = type { i64 }
%struct.MRef = type { i64 }
%struct.IRType1 = type { i8 }
%struct.FoldState = type { %union.IRIns, [2 x %union.IRIns], [2 x %union.IRIns] }
%union.IRIns = type { %struct.GCRef }
%struct.HotPenalty = type { %struct.MRef, i16, i16 }
%struct.BPropEntry = type { i16, i16, i32 }
%struct.ScEvEntry = type { %struct.MRef, i16, i16, i16, i16, %struct.IRType1, i8 }
%union.TValue = type { i64 }
%struct.anon.0 = type { i32, %struct.IRType1, i8, i8, i8 }
%struct.anon = type { i16, i16, i16, i16 }

; Function Attrs: alwaysinline nounwind uwtable
define internal i32 @ir_nextk(ptr noundef %0) #5 {
  %2 = alloca ptr, align 8
  %3 = alloca i32, align 4
  store ptr %0, ptr %2, align 8, !tbaa !4
  call void @llvm.lifetime.start.p0(i64 4, ptr %3) #10
  %4 = load ptr, ptr %2, align 8, !tbaa !4
  %5 = getelementptr inbounds nuw %struct.jit_State, ptr %4, i32 0, i32 0
  %6 = getelementptr inbounds nuw %struct.GCtrace, ptr %5, i32 0, i32 8
  %7 = load i32, ptr %6, align 8, !tbaa !50
  store i32 %7, ptr %3, align 4, !tbaa !32
  %8 = load i32, ptr %3, align 4, !tbaa !32
  %9 = load ptr, ptr %2, align 8, !tbaa !4
  %10 = getelementptr inbounds nuw %struct.jit_State, ptr %9, i32 0, i32 28
  %11 = load i32, ptr %10, align 4, !tbaa !29
  %12 = icmp ule i32 %8, %11
  %13 = xor i1 %12, true
  %14 = xor i1 %13, true
  %15 = zext i1 %14 to i32
  %16 = sext i32 %15 to i64
  %17 = call i64 @llvm.expect.i64(i64 %16, i64 0)
  %18 = icmp ne i64 %17, 0
  br i1 %18, label %19, label %21

19:                                               ; preds = %1
  %20 = load ptr, ptr %2, align 8, !tbaa !4
  call void @lj_ir_growbot(ptr noundef %20)
  br label %21

21:                                               ; preds = %19, %1
  %22 = load i32, ptr %3, align 4, !tbaa !32
  %23 = add i32 %22, -1
  store i32 %23, ptr %3, align 4, !tbaa !32
  %24 = load ptr, ptr %2, align 8, !tbaa !4
  %25 = getelementptr inbounds nuw %struct.jit_State, ptr %24, i32 0, i32 0
  %26 = getelementptr inbounds nuw %struct.GCtrace, ptr %25, i32 0, i32 8
  store i32 %23, ptr %26, align 8, !tbaa !50
  %27 = load i32, ptr %3, align 4, !tbaa !32
  call void @llvm.lifetime.end.p0(i64 4, ptr %3) #10
  ret i32 %27
}

; Function Attrs: nounwind uwtable
define hidden i32 @lj_ir_kslot(ptr noundef %0, i32 noundef %1, i32 noundef %2) #3 {
  %4 = alloca ptr, align 8
  %5 = alloca i32, align 4
  %6 = alloca i32, align 4
  %7 = alloca ptr, align 8
  %8 = alloca ptr, align 8
  %9 = alloca i32, align 4
  %10 = alloca i32, align 4
  store ptr %0, ptr %4, align 8, !tbaa !4
  store i32 %1, ptr %5, align 4, !tbaa !32
  store i32 %2, ptr %6, align 4, !tbaa !32
  call void @llvm.lifetime.start.p0(i64 8, ptr %7) #10
  call void @llvm.lifetime.start.p0(i64 8, ptr %8) #10
  %11 = load ptr, ptr %4, align 8, !tbaa !4
  %12 = getelementptr inbounds nuw %struct.jit_State, ptr %11, i32 0, i32 0
  %13 = getelementptr inbounds nuw %struct.GCtrace, ptr %12, i32 0, i32 7
  %14 = load ptr, ptr %13, align 8, !tbaa !34
  store ptr %14, ptr %8, align 8, !tbaa !30
  call void @llvm.lifetime.start.p0(i64 4, ptr %9) #10
  %15 = load i32, ptr %5, align 4, !tbaa !32
  %16 = trunc i32 %15 to i16
  %17 = zext i16 %16 to i32
  %18 = load i32, ptr %6, align 4, !tbaa !32
  %19 = trunc i32 %18 to i16
  %20 = zext i16 %19 to i32
  %21 = shl i32 %20, 16
  %22 = or i32 %17, %21
  store i32 %22, ptr %9, align 4, !tbaa !32
  call void @llvm.lifetime.start.p0(i64 4, ptr %10) #10
  %23 = load ptr, ptr %4, align 8, !tbaa !4
  %24 = getelementptr inbounds nuw %struct.jit_State, ptr %23, i32 0, i32 40
  %25 = getelementptr inbounds [101 x i16], ptr %24, i64 0, i64 30
  %26 = load i16, ptr %25, align 2, !tbaa !36
  %27 = zext i16 %26 to i32
  store i32 %27, ptr %10, align 4, !tbaa !32
  br label %28

28:                                               ; preds = %42, %3
  %29 = load i32, ptr %10, align 4, !tbaa !32
  %30 = icmp ne i32 %29, 0
  br i1 %30, label %31, label %50

31:                                               ; preds = %28
  %32 = load ptr, ptr %8, align 8, !tbaa !30
  %33 = load i32, ptr %10, align 4, !tbaa !32
  %34 = zext i32 %33 to i64
  %35 = getelementptr inbounds nuw %union.IRIns, ptr %32, i64 %34
  %36 = getelementptr inbounds nuw %struct.anon.0, ptr %35, i32 0, i32 0
  %37 = load i32, ptr %36, align 8, !tbaa !35
  %38 = load i32, ptr %9, align 4, !tbaa !32
  %39 = icmp eq i32 %37, %38
  br i1 %39, label %40, label %41

40:                                               ; preds = %31
  br label %79

41:                                               ; preds = %31
  br label %42

42:                                               ; preds = %41
  %43 = load ptr, ptr %8, align 8, !tbaa !30
  %44 = load i32, ptr %10, align 4, !tbaa !32
  %45 = zext i32 %44 to i64
  %46 = getelementptr inbounds nuw %union.IRIns, ptr %43, i64 %45
  %47 = getelementptr inbounds nuw %struct.anon, ptr %46, i32 0, i32 3
  %48 = load i16, ptr %47, align 2, !tbaa !35
  %49 = zext i16 %48 to i32
  store i32 %49, ptr %10, align 4, !tbaa !32
  br label %28, !llvm.loop !61

50:                                               ; preds = %28
  %51 = load ptr, ptr %4, align 8, !tbaa !4
  %52 = call i32 @ir_nextk(ptr noundef %51)
  store i32 %52, ptr %10, align 4, !tbaa !32
  %53 = load ptr, ptr %4, align 8, !tbaa !4
  %54 = getelementptr inbounds nuw %struct.jit_State, ptr %53, i32 0, i32 0
  %55 = getelementptr inbounds nuw %struct.GCtrace, ptr %54, i32 0, i32 7
  %56 = load ptr, ptr %55, align 8, !tbaa !34
  %57 = load i32, ptr %10, align 4, !tbaa !32
  %58 = zext i32 %57 to i64
  %59 = getelementptr inbounds nuw %union.IRIns, ptr %56, i64 %58
  store ptr %59, ptr %7, align 8, !tbaa !30
  %60 = load i32, ptr %9, align 4, !tbaa !32
  %61 = load ptr, ptr %7, align 8, !tbaa !30
  %62 = getelementptr inbounds nuw %struct.anon.0, ptr %61, i32 0, i32 0
  store i32 %60, ptr %62, align 8, !tbaa !35
  %63 = load ptr, ptr %7, align 8, !tbaa !30
  %64 = getelementptr inbounds nuw %struct.anon.0, ptr %63, i32 0, i32 1
  %65 = getelementptr inbounds nuw %struct.IRType1, ptr %64, i32 0, i32 0
  store i8 5, ptr %65, align 4, !tbaa !35
  %66 = load ptr, ptr %7, align 8, !tbaa !30
  %67 = getelementptr inbounds nuw %struct.anon.0, ptr %66, i32 0, i32 2
  store i8 30, ptr %67, align 1, !tbaa !35
  %68 = load ptr, ptr %4, align 8, !tbaa !4
  %69 = getelementptr inbounds nuw %struct.jit_State, ptr %68, i32 0, i32 40
  %70 = getelementptr inbounds [101 x i16], ptr %69, i64 0, i64 30
  %71 = load i16, ptr %70, align 2, !tbaa !36
  %72 = load ptr, ptr %7, align 8, !tbaa !30
  %73 = getelementptr inbounds nuw %struct.anon, ptr %72, i32 0, i32 3
  store i16 %71, ptr %73, align 2, !tbaa !35
  %74 = load i32, ptr %10, align 4, !tbaa !32
  %75 = trunc i32 %74 to i16
  %76 = load ptr, ptr %4, align 8, !tbaa !4
  %77 = getelementptr inbounds nuw %struct.jit_State, ptr %76, i32 0, i32 40
  %78 = getelementptr inbounds [101 x i16], ptr %77, i64 0, i64 30
  store i16 %75, ptr %78, align 2, !tbaa !36
  br label %79

79:                                               ; preds = %50, %40
  %80 = load i32, ptr %10, align 4, !tbaa !32
  %81 = add i32 %80, 83886080
  call void @llvm.lifetime.end.p0(i64 4, ptr %10) #10
  call void @llvm.lifetime.end.p0(i64 4, ptr %9) #10
  call void @llvm.lifetime.end.p0(i64 8, ptr %8) #10
  call void @llvm.lifetime.end.p0(i64 8, ptr %7) #10
  ret i32 %81
}