; Function Attrs: nounwind uwtable
define hidden i32 @lj_ir_kslot(ptr noundef captures(none) %0, i32 noundef %1, i32 noundef %2) local_unnamed_addr #6 {
  %4 = getelementptr inbounds nuw i8, ptr %0, i64 32
  %5 = load ptr, ptr %4, align 8, !tbaa !30
  %6 = and i32 %1, 65535
  %7 = shl i32 %2, 16
  %8 = or disjoint i32 %7, %6
  %9 = getelementptr inbounds nuw i8, ptr %0, i64 462
  %.0.in21 = load i16, ptr %9, align 2, !tbaa !33
  %.not22 = icmp eq i16 %.0.in21, 0
  br i1 %.not22, label %._crit_edge, label %.lr.ph

10:                                               ; preds = %.lr.ph
  %11 = getelementptr inbounds nuw i8, ptr %13, i64 6
  %.0.in = load i16, ptr %11, align 2, !tbaa !33
  %.not = icmp eq i16 %.0.in, 0
  br i1 %.not, label %._crit_edge, label %.lr.ph, !llvm.loop !49

.lr.ph:                                           ; preds = %3, %10
  %.0.in23 = phi i16 [ %.0.in, %10 ], [ %.0.in21, %3 ]
  %12 = zext i16 %.0.in23 to i64
  %13 = getelementptr inbounds nuw %union.IRIns, ptr %5, i64 %12
  %14 = load i32, ptr %13, align 8, !tbaa !33
  %15 = icmp eq i32 %14, %8
  br i1 %15, label %.loopexit, label %10

._crit_edge:                                      ; preds = %10, %3
  %16 = getelementptr inbounds nuw i8, ptr %0, i64 40
  %17 = load i32, ptr %16, align 8, !tbaa !43
  %18 = getelementptr inbounds nuw i8, ptr %0, i64 340
  %19 = load i32, ptr %18, align 4, !tbaa !4
  %.not.i = icmp ugt i32 %17, %19
  br i1 %.not.i, label %ir_nextk.exit, label %20, !prof !32

20:                                               ; preds = %._crit_edge
  tail call fastcc void @lj_ir_growbot(ptr noundef nonnull %0)
  %.pre = load ptr, ptr %4, align 8, !tbaa !30
  br label %ir_nextk.exit

ir_nextk.exit:                                    ; preds = %._crit_edge, %20
  %21 = phi ptr [ %5, %._crit_edge ], [ %.pre, %20 ]
  %22 = add i32 %17, -1
  store i32 %22, ptr %16, align 8, !tbaa !43
  %23 = zext i32 %22 to i64
  %24 = getelementptr inbounds nuw %union.IRIns, ptr %21, i64 %23
  store i32 %8, ptr %24, align 8, !tbaa !33
  %25 = getelementptr inbounds nuw i8, ptr %24, i64 4
  store i8 5, ptr %25, align 4, !tbaa !33
  %26 = getelementptr inbounds nuw i8, ptr %24, i64 5
  store i8 30, ptr %26, align 1, !tbaa !33
  %27 = load i16, ptr %9, align 2, !tbaa !34
  %28 = getelementptr inbounds nuw i8, ptr %24, i64 6
  store i16 %27, ptr %28, align 2, !tbaa !33
  %29 = trunc i32 %22 to i16
  store i16 %29, ptr %9, align 2, !tbaa !34
  br label %30

.loopexit:                                        ; preds = %.lr.ph
  %.0.le = zext i16 %.0.in23 to i32
  br label %30

30:                                               ; preds = %.loopexit, %ir_nextk.exit
  %.1 = phi i32 [ %22, %ir_nextk.exit ], [ %.0.le, %.loopexit ]
  %31 = add i32 %.1, 83886080
  ret i32 %31
}